; Function Attrs: nounwind uwtable
define hidden void @je_pages_mark_guards(ptr noundef %0, ptr noundef %1) local_unnamed_addr #0 {
  %.not = icmp eq ptr %0, null
  br i1 %.not, label %5, label %3

3:                                                ; preds = %2
  %4 = tail call i32 @mprotect(ptr noundef nonnull %0, i64 noundef 4096, i32 noundef 0) #8
  br label %5

5:                                                ; preds = %3, %2
  %.not5 = icmp eq ptr %1, null
  br i1 %.not5, label %8, label %6

6:                                                ; preds = %5
  %7 = tail call i32 @mprotect(ptr noundef nonnull %1, i64 noundef 4096, i32 noundef 0) #8
  br label %8

8:                                                ; preds = %6, %5
  ret void
}